; Function Attrs: mustprogress nounwind uwtable
define internal void @"_ZN4llvm12function_refIFvvEE11callback_fnIZN5clang4Sema19LookupSpecialMemberEPNS4_13CXXRecordDeclENS4_20CXXSpecialMemberKindEbbbbbE3$_5EEvl"(i64 noundef %0) #0 align 2 {
  %2 = inttoptr i64 %0 to ptr
  %.val = load ptr, ptr %2, align 8
  %3 = getelementptr i8, ptr %2, i64 8
  %.val1 = load ptr, ptr %3, align 8
  %.val1.val = load ptr, ptr %.val1, align 8
  %4 = tail call noundef ptr @_ZN5clang4Sema29DeclareImplicitMoveAssignmentEPNS_13CXXRecordDeclE(ptr noundef nonnull align 8 dereferenceable(17560) %.val, ptr noundef %.val1.val) #24
  ret void
}